; Function Attrs: nounwind uwtable
define dso_local i32 @latencyResetEvent(ptr noundef readonly captures(address_is_null) %0) local_unnamed_addr #2 {
  %2 = load ptr, ptr getelementptr inbounds nuw (i8, ptr @server, i64 8072), align 8, !tbaa !5
  %3 = tail call ptr @dictGetSafeIterator(ptr noundef %2) #14
  %4 = tail call ptr @dictNext(ptr noundef %3) #14
  %.not10 = icmp eq ptr %4, null
  br i1 %.not10, label %._crit_edge, label %.lr.ph

.lr.ph:                                           ; preds = %1
  %5 = icmp eq ptr %0, null
  br i1 %5, label %.lr.ph.split.us, label %.lr.ph.split

.lr.ph.split.us:                                  ; preds = %.lr.ph, %.lr.ph.split.us
  %6 = phi ptr [ %11, %.lr.ph.split.us ], [ %4, %.lr.ph ]
  %.011.us = phi i32 [ %10, %.lr.ph.split.us ], [ 0, %.lr.ph ]
  %7 = tail call ptr @dictGetKey(ptr noundef nonnull %6) #14
  %8 = load ptr, ptr getelementptr inbounds nuw (i8, ptr @server, i64 8072), align 8, !tbaa !5
  %9 = tail call i32 @dictDelete(ptr noundef %8, ptr noundef %7) #14
  %10 = add nuw nsw i32 %.011.us, 1
  %11 = tail call ptr @dictNext(ptr noundef %3) #14
  %.not.us = icmp eq ptr %11, null
  br i1 %.not.us, label %._crit_edge, label %.lr.ph.split.us, !llvm.loop !44

.lr.ph.split:                                     ; preds = %.lr.ph, %20
  %12 = phi ptr [ %21, %20 ], [ %4, %.lr.ph ]
  %.011 = phi i32 [ %.1, %20 ], [ 0, %.lr.ph ]
  %13 = tail call ptr @dictGetKey(ptr noundef nonnull %12) #14
  %14 = tail call i32 @strcasecmp(ptr noundef %13, ptr noundef nonnull %0) #13
  %15 = icmp eq i32 %14, 0
  br i1 %15, label %16, label %20

16:                                               ; preds = %.lr.ph.split
  %17 = load ptr, ptr getelementptr inbounds nuw (i8, ptr @server, i64 8072), align 8, !tbaa !5
  %18 = tail call i32 @dictDelete(ptr noundef %17, ptr noundef %13) #14
  %19 = add nsw i32 %.011, 1
  br label %20

20:                                               ; preds = %16, %.lr.ph.split
  %.1 = phi i32 [ %19, %16 ], [ %.011, %.lr.ph.split ]
  %21 = tail call ptr @dictNext(ptr noundef %3) #14
  %.not = icmp eq ptr %21, null
  br i1 %.not, label %._crit_edge, label %.lr.ph.split, !llvm.loop !44

._crit_edge:                                      ; preds = %20, %.lr.ph.split.us, %1
  %.0.lcssa = phi i32 [ 0, %1 ], [ %10, %.lr.ph.split.us ], [ %.1, %20 ]
  tail call void @dictReleaseIterator(ptr noundef %3) #14
  ret i32 %.0.lcssa
}